(lp0
(lp1
F45.0
aF452821.0
aa(lp2
F123.0
aF687503.0
aa(lp3
F81.0
aF679860.0
aa(lp4
F110.0
aF723411.0
aa(lp5
F49.0
aF460663.0
aa(lp6
F4.0
aF25200.0
aa(lp7
F69.0
aF441807.0
aa(lp8
F124.0
aF788120.0
aa(lp9
F135.0
aF832116.0
aa(lp10
F174.0
aF856291.0
aa(lp11
F100.0
aF813145.0
aa(lp12
F161.0
aF948537.0
aa(lp13
F153.0
aF961734.0
aa(lp14
F171.0
aF1030734.0
aa(lp15
F174.0
aF1004116.0
aa(lp16
F317.0
aF1106014.0
aa(lp17
F336.0
aF1128621.0
aa(lp18
F201.0
aF1103790.0
aa(lp19
F184.0
aF1184209.0
aa(lp20
F124.0
aF1164749.0
aa(lp21
F111.0
aF1280474.0
aa(lp22
F141.0
aF1293799.0
aa(lp23
F90.0
aF1213351.0
aa(lp24
F124.0
aF1370115.0
aa(lp25
F157.0
aF1355879.0
aa(lp26
F172.0
aF1456610.0
aa(lp27
F140.0
aF1440790.0
aa(lp28
F102.0
aF1479721.0
aa(lp29
F119.0
aF1516603.0
aa(lp30
F111.0
aF1500783.0
aa(lp31
F100.0
aF1572327.0
aa(lp32
F93.0
aF1560547.0
aa(lp33
F80.0
aF1748726.0
aa(lp34
F104.0
aF1790866.0
aa(lp35
F111.0
aF1738619.0
aa(lp36
F122.0
aF1938403.0
aa(lp37
F133.0
aF1915325.0
aa(lp38
F137.0
aF2045528.0
aa(lp39
F115.0
aF2010316.0
aa(lp40
F113.0
aF2188729.0
aa(lp41
F106.0
aF2174745.0
aa(lp42
F140.0
aF2079638.0
aa(lp43
F126.0
aF2176370.0
aa(lp44
F104.0
aF2134640.0
aa(lp45
F120.0
aF2278438.0
aa(lp46
F101.0
aF1989462.0
aa(lp47
F106.0
aF2132361.0
aa(lp48
F178.0
aF2510281.0
aa(lp49
F148.0
aF2509044.0
aa(lp50
F119.0
aF2554182.0
aa(lp51
F126.0
aF2505404.0
aa.